target datalayout = "e-m:e-p270:32:32-p271:32:32-p272:64:64-i64:64-i128:128-f80:128-n8:16:32:64-S128"
target triple = "x86_64-pc-linux-gnu"

%struct.anon.5 = type { i32, i16 }

; Function Attrs: nounwind uwtable
define i32 @tls1_group_id2nid(i16 noundef zeroext %0, i32 noundef %1) #1 {
  %3 = alloca i32, align 4
  %4 = alloca i16, align 2
  %5 = alloca i32, align 4
  %6 = alloca i64, align 8
  %7 = alloca i32, align 4
  store i16 %0, ptr %4, align 2, !tbaa !100
  store i32 %1, ptr %5, align 4, !tbaa !128
  call void @llvm.lifetime.start.p0(i64 8, ptr %6) #8
  %8 = load i16, ptr %4, align 2, !tbaa !100
  %9 = zext i16 %8 to i32
  %10 = icmp eq i32 %9, 0
  br i1 %10, label %11, label %12

11:                                               ; preds = %2
  store i32 0, ptr %3, align 4
  store i32 1, ptr %7, align 4
  br label %42

12:                                               ; preds = %2
  store i64 0, ptr %6, align 8, !tbaa !3
  br label %13

13:                                               ; preds = %31, %12
  %14 = load i64, ptr %6, align 8, !tbaa !3
  %15 = icmp ult i64 %14, 45
  br i1 %15, label %16, label %34

16:                                               ; preds = %13
  %17 = load i64, ptr %6, align 8, !tbaa !3
  %18 = getelementptr inbounds nuw [45 x %struct.anon.5], ptr @nid_to_group, i64 0, i64 %17
  %19 = getelementptr inbounds nuw %struct.anon.5, ptr %18, i32 0, i32 1
  %20 = load i16, ptr %19, align 4, !tbaa !129
  %21 = zext i16 %20 to i32
  %22 = load i16, ptr %4, align 2, !tbaa !100
  %23 = zext i16 %22 to i32
  %24 = icmp eq i32 %21, %23
  br i1 %24, label %25, label %30

25:                                               ; preds = %16
  %26 = load i64, ptr %6, align 8, !tbaa !3
  %27 = getelementptr inbounds nuw [45 x %struct.anon.5], ptr @nid_to_group, i64 0, i64 %26
  %28 = getelementptr inbounds nuw %struct.anon.5, ptr %27, i32 0, i32 0
  %29 = load i32, ptr %28, align 8, !tbaa !131
  store i32 %29, ptr %3, align 4
  store i32 1, ptr %7, align 4
  br label %42

30:                                               ; preds = %16
  br label %31

31:                                               ; preds = %30
  %32 = load i64, ptr %6, align 8, !tbaa !3
  %33 = add i64 %32, 1
  store i64 %33, ptr %6, align 8, !tbaa !3
  br label %13, !llvm.loop !132

34:                                               ; preds = %13
  %35 = load i32, ptr %5, align 4, !tbaa !128
  %36 = icmp ne i32 %35, 0
  br i1 %36, label %38, label %37

37:                                               ; preds = %34
  store i32 0, ptr %3, align 4
  store i32 1, ptr %7, align 4
  br label %42

38:                                               ; preds = %34
  %39 = load i16, ptr %4, align 2, !tbaa !100
  %40 = zext i16 %39 to i32
  %41 = or i32 16777216, %40
  store i32 %41, ptr %3, align 4
  store i32 1, ptr %7, align 4
  br label %42

42:                                               ; preds = %38, %37, %25, %11
  call void @llvm.lifetime.end.p0(i64 8, ptr %6) #8
  %43 = load i32, ptr %3, align 4
  ret i32 %43
}