; Function Attrs: nofree norecurse nosync nounwind memory(none) uwtable
define i32 @tls1_group_id2nid(i16 noundef zeroext %0, i32 noundef %1) local_unnamed_addr #6 {
  %3 = zext i16 %0 to i32
  %4 = icmp eq i16 %0, 0
  br i1 %4, label %15, label %.preheader

5:                                                ; preds = %.preheader
  %6 = add nuw nsw i64 %.011, 1
  %exitcond.not = icmp eq i64 %6, 45
  br i1 %exitcond.not, label %13, label %.preheader, !llvm.loop !121

.preheader:                                       ; preds = %2, %5
  %.011 = phi i64 [ %6, %5 ], [ 0, %2 ]
  %7 = getelementptr inbounds nuw [45 x %struct.anon.5], ptr @nid_to_group, i64 0, i64 %.011
  %8 = getelementptr inbounds nuw i8, ptr %7, i64 4
  %9 = load i16, ptr %8, align 4, !tbaa !122
  %10 = icmp eq i16 %9, %0
  br i1 %10, label %11, label %5

11:                                               ; preds = %.preheader
  %12 = load i32, ptr %7, align 8, !tbaa !124
  br label %15

13:                                               ; preds = %5
  %.not = icmp eq i32 %1, 0
  %14 = or disjoint i32 %3, 16777216
  %spec.select = select i1 %.not, i32 0, i32 %14
  br label %15

15:                                               ; preds = %13, %2, %11
  %.09 = phi i32 [ %12, %11 ], [ 0, %2 ], [ %spec.select, %13 ]
  ret i32 %.09
}